target datalayout = "e-m:e-p270:32:32-p271:32:32-p272:64:64-i64:64-i128:128-f80:128-n8:16:32:64-S128"
target triple = "x86_64-pc-linux-gnu"

%struct._header_field_info = type { ptr, ptr, i32, i32, ptr, i64, ptr, i32, i32, i32, i32, ptr }
%struct.wscbor_chunk_t = type { ptr, i32, i32, i32, ptr, ptr, i32, i8, i64 }
%struct._wscbor_chunk_priv_t = type { ptr, ptr, ptr }
%struct.wscbor_expert_add_t = type { ptr, ptr }
%struct._packet_info = type { ptr, ptr, i32, i32, %struct.nstime_t, %struct.nstime_t, %struct.nstime_t, i8, ptr, ptr, ptr, ptr, %struct._address, %struct._address, %struct._address, %struct._address, %struct._address, %struct._address, i32, ptr, i8, [3 x i8], %struct.anon, i32, i32, i32, i32, ptr, i8, ptr, ptr, i16, i16, i32, i32, i16, i32, i32, ptr, ptr, ptr, i8, i8, i16, i16, i16, i32, i16, i16, ptr, ptr, ptr, ptr, ptr, i32, i32 }
%struct.nstime_t = type { i64, i32 }
%struct._address = type { i32, i32, ptr, ptr }
%struct.anon = type { i8, [3 x i8] }

@stderr = external global ptr, align 8
@.str.14 = private unnamed_addr constant [27 x i8] c"Unhandled bitmask size: %d\00", align 1

; Function Attrs: null_pointer_is_valid sspstrong uwtable
define i64 @wscbor_chunk_mark_errors(ptr noundef %0, ptr noundef %1, ptr noundef %2) #0 {
  %4 = alloca ptr, align 8
  %5 = alloca ptr, align 8
  %6 = alloca ptr, align 8
  %7 = alloca %struct.wscbor_expert_add_t, align 8
  store ptr %0, ptr %4, align 8
  store ptr %1, ptr %5, align 8
  store ptr %2, ptr %6, align 8
  call void @llvm.lifetime.start.p0(i64 16, ptr %7) #7
  %8 = getelementptr inbounds nuw %struct.wscbor_expert_add_t, ptr %7, i32 0, i32 0
  %9 = load ptr, ptr %4, align 8
  store ptr %9, ptr %8, align 8
  %10 = getelementptr inbounds nuw %struct.wscbor_expert_add_t, ptr %7, i32 0, i32 1
  %11 = load ptr, ptr %5, align 8
  store ptr %11, ptr %10, align 8
  %12 = load ptr, ptr %6, align 8
  %13 = getelementptr inbounds nuw %struct.wscbor_chunk_t, ptr %12, i32 0, i32 4
  %14 = load ptr, ptr %13, align 8
  call void @wmem_list_foreach(ptr noundef %14, ptr noundef @wscbor_expert_add, ptr noundef %7)
  %15 = load ptr, ptr %6, align 8
  %16 = getelementptr inbounds nuw %struct.wscbor_chunk_t, ptr %15, i32 0, i32 0
  %17 = load ptr, ptr %16, align 8
  %18 = getelementptr inbounds nuw %struct._wscbor_chunk_priv_t, ptr %17, i32 0, i32 1
  %19 = load ptr, ptr %18, align 8
  call void @wmem_list_foreach(ptr noundef %19, ptr noundef @wscbor_expert_add, ptr noundef %7)
  %20 = load ptr, ptr %6, align 8
  %21 = getelementptr inbounds nuw %struct.wscbor_chunk_t, ptr %20, i32 0, i32 4
  %22 = load ptr, ptr %21, align 8
  %23 = call i32 @wmem_list_count(ptr noundef %22)
  %24 = zext i32 %23 to i64
  call void @llvm.lifetime.end.p0(i64 16, ptr %7) #7
  ret i64 %24
}

; Function Attrs: null_pointer_is_valid sspstrong uwtable
define ptr @proto_tree_add_cbor_bitmask(ptr noundef %0, i32 noundef %1, i32 noundef %2, ptr noundef %3, ptr noundef %4, ptr noundef %5, ptr noundef %6, ptr noundef %7) #0 {
  %9 = alloca ptr, align 8
  %10 = alloca ptr, align 8
  %11 = alloca i32, align 4
  %12 = alloca i32, align 4
  %13 = alloca ptr, align 8
  %14 = alloca ptr, align 8
  %15 = alloca ptr, align 8
  %16 = alloca ptr, align 8
  %17 = alloca ptr, align 8
  %18 = alloca ptr, align 8
  %19 = alloca i32, align 4
  %20 = alloca i32, align 4
  %21 = alloca ptr, align 8
  %22 = alloca i64, align 8
  %23 = alloca i32, align 4
  %24 = alloca ptr, align 8
  %25 = alloca ptr, align 8
  store ptr %0, ptr %10, align 8
  store i32 %1, ptr %11, align 4
  store i32 %2, ptr %12, align 4
  store ptr %3, ptr %13, align 8
  store ptr %4, ptr %14, align 8
  store ptr %5, ptr %15, align 8
  store ptr %6, ptr %16, align 8
  store ptr %7, ptr %17, align 8
  call void @llvm.lifetime.start.p0(i64 8, ptr %18) #7
  %26 = load i32, ptr %11, align 4
  %27 = call ptr @proto_registrar_get_nth(i32 noundef %26)
  store ptr %27, ptr %18, align 8
  call void @llvm.lifetime.start.p0(i64 4, ptr %19) #7
  store i32 0, ptr %19, align 4
  %28 = load ptr, ptr %18, align 8
  %29 = getelementptr inbounds nuw %struct._header_field_info, ptr %28, i32 0, i32 2
  %30 = load i32, ptr %29, align 8
  switch i32 %30, label %35 [
    i32 4, label %31
    i32 5, label %32
    i32 7, label %33
    i32 11, label %34
  ]

31:                                               ; preds = %8
  store i32 1, ptr %19, align 4
  br label %41

32:                                               ; preds = %8
  store i32 2, ptr %19, align 4
  br label %41

33:                                               ; preds = %8
  store i32 4, ptr %19, align 4
  br label %41

34:                                               ; preds = %8
  store i32 8, ptr %19, align 4
  br label %41

35:                                               ; preds = %8
  %36 = load ptr, ptr @stderr, align 8
  %37 = load ptr, ptr %18, align 8
  %38 = getelementptr inbounds nuw %struct._header_field_info, ptr %37, i32 0, i32 2
  %39 = load i32, ptr %38, align 8
  %40 = call i32 (ptr, i32, ptr, ...) @__fprintf_chk(ptr noundef %36, i32 noundef 2, ptr noundef @.str.14, i32 noundef %39)
  store ptr null, ptr %9, align 8
  store i32 1, ptr %20, align 4
  br label %100

41:                                               ; preds = %34, %33, %32, %31
  call void @llvm.lifetime.start.p0(i64 8, ptr %21) #7
  %42 = load ptr, ptr %14, align 8
  %43 = getelementptr inbounds nuw %struct._packet_info, ptr %42, i32 0, i32 51
  %44 = load ptr, ptr %43, align 8
  %45 = load i32, ptr %19, align 4
  %46 = sext i32 %45 to i64
  %47 = call noalias ptr @wmem_alloc0(ptr noundef %44, i64 noundef %46) #8
  store ptr %47, ptr %21, align 8
  call void @llvm.lifetime.start.p0(i64 8, ptr %22) #7
  %48 = load ptr, ptr %17, align 8
  %49 = icmp ne ptr %48, null
  br i1 %49, label %50, label %53

50:                                               ; preds = %41
  %51 = load ptr, ptr %17, align 8
  %52 = load i64, ptr %51, align 8
  br label %54

53:                                               ; preds = %41
  br label %54

54:                                               ; preds = %53, %50
  %55 = phi i64 [ %52, %50 ], [ 0, %53 ]
  store i64 %55, ptr %22, align 8
  call void @llvm.lifetime.start.p0(i64 4, ptr %23) #7
  %56 = load i32, ptr %19, align 4
  %57 = sub i32 %56, 1
  store i32 %57, ptr %23, align 4
  br label %58

58:                                               ; preds = %72, %54
  %59 = load i32, ptr %23, align 4
  %60 = icmp sge i32 %59, 0
  br i1 %60, label %62, label %61

61:                                               ; preds = %58
  store i32 3, ptr %20, align 4
  call void @llvm.lifetime.end.p0(i64 4, ptr %23) #7
  br label %75

62:                                               ; preds = %58
  %63 = load i64, ptr %22, align 8
  %64 = and i64 %63, 255
  %65 = trunc i64 %64 to i8
  %66 = load ptr, ptr %21, align 8
  %67 = load i32, ptr %23, align 4
  %68 = sext i32 %67 to i64
  %69 = getelementptr i8, ptr %66, i64 %68
  store i8 %65, ptr %69, align 1
  %70 = load i64, ptr %22, align 8
  %71 = lshr i64 %70, 8
  store i64 %71, ptr %22, align 8
  br label %72

72:                                               ; preds = %62
  %73 = load i32, ptr %23, align 4
  %74 = add i32 %73, -1
  store i32 %74, ptr %23, align 4
  br label %58, !llvm.loop !13

75:                                               ; preds = %61
  call void @llvm.lifetime.end.p0(i64 8, ptr %22) #7
  call void @llvm.lifetime.start.p0(i64 8, ptr %24) #7
  %76 = load ptr, ptr %15, align 8
  %77 = load ptr, ptr %21, align 8
  %78 = load i32, ptr %19, align 4
  %79 = load i32, ptr %19, align 4
  %80 = call ptr @tvb_new_child_real_data(ptr noundef %76, ptr noundef %77, i32 noundef %78, i32 noundef %79)
  store ptr %80, ptr %24, align 8
  call void @llvm.lifetime.start.p0(i64 8, ptr %25) #7
  %81 = load ptr, ptr %10, align 8
  %82 = load ptr, ptr %24, align 8
  %83 = load i32, ptr %11, align 4
  %84 = load i32, ptr %12, align 4
  %85 = load ptr, ptr %13, align 8
  %86 = load ptr, ptr %17, align 8
  %87 = icmp ne ptr %86, null
  br i1 %87, label %88, label %91

88:                                               ; preds = %75
  %89 = load ptr, ptr %17, align 8
  %90 = load i64, ptr %89, align 8
  br label %92

91:                                               ; preds = %75
  br label %92

92:                                               ; preds = %91, %88
  %93 = phi i64 [ %90, %88 ], [ 0, %91 ]
  %94 = call ptr @proto_tree_add_bitmask_value(ptr noundef %81, ptr noundef %82, i32 noundef 0, i32 noundef %83, i32 noundef %84, ptr noundef %85, i64 noundef %93)
  store ptr %94, ptr %25, align 8
  %95 = load ptr, ptr %14, align 8
  %96 = load ptr, ptr %25, align 8
  %97 = load ptr, ptr %16, align 8
  %98 = call i64 @wscbor_chunk_mark_errors(ptr noundef %95, ptr noundef %96, ptr noundef %97)
  %99 = load ptr, ptr %25, align 8
  store ptr %99, ptr %9, align 8
  store i32 1, ptr %20, align 4
  call void @llvm.lifetime.end.p0(i64 8, ptr %25) #7
  call void @llvm.lifetime.end.p0(i64 8, ptr %24) #7
  call void @llvm.lifetime.end.p0(i64 8, ptr %21) #7
  br label %100

100:                                              ; preds = %92, %35
  call void @llvm.lifetime.end.p0(i64 4, ptr %19) #7
  call void @llvm.lifetime.end.p0(i64 8, ptr %18) #7
  %101 = load ptr, ptr %9, align 8
  ret ptr %101
}