; Function Attrs: null_pointer_is_valid sspstrong uwtable
define ptr @proto_tree_add_cbor_bitmask(ptr noundef %0, i32 noundef %1, i32 noundef %2, ptr noundef %3, ptr noundef %4, ptr noundef %5, ptr noundef readonly captures(none) %6, ptr noundef readonly captures(address_is_null) %7) local_unnamed_addr #0 {
  %9 = alloca %struct.wscbor_expert_add_t, align 8
  %10 = tail call ptr @proto_registrar_get_nth(i32 noundef %1)
  %11 = getelementptr inbounds nuw i8, ptr %10, i64 16
  %12 = load i32, ptr %11, align 8
  %switch.tableidx = add i32 %12, -4
  %13 = icmp ult i32 %switch.tableidx, 8
  br i1 %13, label %switch.hole_check, label %14

14:                                               ; preds = %switch.hole_check, %8
  %15 = load ptr, ptr @stderr, align 8
  %16 = tail call i32 (ptr, i32, ptr, ...) @__fprintf_chk(ptr noundef %15, i32 noundef 2, ptr noundef nonnull @.str.14, i32 noundef %12)
  br label %44

switch.hole_check:                                ; preds = %8
  %switch.maskindex = trunc nuw i32 %switch.tableidx to i8
  %switch.shifted = lshr i8 -117, %switch.maskindex
  %switch.lobit = trunc i8 %switch.shifted to i1
  br i1 %switch.lobit, label %switch.lookup, label %14

switch.lookup:                                    ; preds = %switch.hole_check
  %17 = zext nneg i32 %switch.tableidx to i64
  %switch.gep = getelementptr inbounds nuw [8 x i32], ptr @switch.table.proto_tree_add_cbor_bitmask, i64 0, i64 %17
  %switch.load = load i32, ptr %switch.gep, align 4
  %18 = getelementptr inbounds nuw i8, ptr %4, i64 408
  %19 = load ptr, ptr %18, align 8
  %20 = zext nneg i32 %switch.load to i64
  %21 = tail call noalias ptr @wmem_alloc0(ptr noundef %19, i64 noundef %20) #8
  %.not = icmp eq ptr %7, null
  br i1 %.not, label %.preheader, label %22

22:                                               ; preds = %switch.lookup
  %23 = load i64, ptr %7, align 8
  br label %.preheader

.preheader:                                       ; preds = %switch.lookup, %22
  %.03133.ph = phi i64 [ %23, %22 ], [ 0, %switch.lookup ]
  br label %26

24:                                               ; preds = %26
  %25 = tail call ptr @tvb_new_child_real_data(ptr noundef %5, ptr noundef %21, i32 noundef %switch.load, i32 noundef %switch.load)
  br i1 %.not, label %33, label %31

26:                                               ; preds = %.preheader, %26
  %indvars.iv = phi i64 [ %indvars.iv.next, %26 ], [ %20, %.preheader ]
  %.03133 = phi i64 [ %29, %26 ], [ %.03133.ph, %.preheader ]
  %indvars.iv.next = add nsw i64 %indvars.iv, -1
  %27 = trunc i64 %.03133 to i8
  %28 = getelementptr i8, ptr %21, i64 %indvars.iv.next
  store i8 %27, ptr %28, align 1
  %29 = lshr i64 %.03133, 8
  %30 = icmp samesign ugt i64 %indvars.iv, 1
  br i1 %30, label %26, label %24, !llvm.loop !13

31:                                               ; preds = %24
  %32 = load i64, ptr %7, align 8
  br label %33

33:                                               ; preds = %24, %31
  %34 = phi i64 [ %32, %31 ], [ 0, %24 ]
  %35 = tail call ptr @proto_tree_add_bitmask_value(ptr noundef %0, ptr noundef %25, i32 noundef 0, i32 noundef %1, i32 noundef %2, ptr noundef %3, i64 noundef %34)
  call void @llvm.lifetime.start.p0(i64 16, ptr nonnull %9) #9
  store ptr %4, ptr %9, align 8
  %36 = getelementptr inbounds nuw i8, ptr %9, i64 8
  store ptr %35, ptr %36, align 8
  %37 = getelementptr inbounds nuw i8, ptr %6, i64 24
  %38 = load ptr, ptr %37, align 8
  call void @wmem_list_foreach(ptr noundef %38, ptr noundef nonnull @wscbor_expert_add, ptr noundef nonnull %9)
  %39 = load ptr, ptr %6, align 8
  %40 = getelementptr inbounds nuw i8, ptr %39, i64 8
  %41 = load ptr, ptr %40, align 8
  call void @wmem_list_foreach(ptr noundef %41, ptr noundef nonnull @wscbor_expert_add, ptr noundef nonnull %9)
  %42 = load ptr, ptr %37, align 8
  %43 = call i32 @wmem_list_count(ptr noundef %42)
  call void @llvm.lifetime.end.p0(i64 16, ptr nonnull %9) #9
  br label %44

44:                                               ; preds = %33, %14
  %.0 = phi ptr [ null, %14 ], [ %35, %33 ]
  ret ptr %.0
}